target datalayout = "e-m:e-p270:32:32-p271:32:32-p272:64:64-i64:64-i128:128-f80:128-n8:16:32:64-S128"
target triple = "x86_64-pc-linux-gnu"

@allow_customize = internal global i32 1, align 4
@malloc_impl = internal global ptr @CRYPTO_malloc, align 8

; Function Attrs: nounwind uwtable
define noalias ptr @CRYPTO_malloc(i64 noundef %0, ptr noundef %1, i32 noundef %2) #0 {
  %4 = alloca ptr, align 8
  %5 = alloca i64, align 8
  %6 = alloca ptr, align 8
  %7 = alloca i32, align 4
  %8 = alloca ptr, align 8
  %9 = alloca i32, align 4
  store i64 %0, ptr %5, align 8, !tbaa !9
  store ptr %1, ptr %6, align 8, !tbaa !11
  store i32 %2, ptr %7, align 4, !tbaa !7
  call void @llvm.lifetime.start.p0(i64 8, ptr %8) #8
  %10 = load ptr, ptr @malloc_impl, align 8, !tbaa !3
  %11 = icmp ne ptr %10, @CRYPTO_malloc
  br i1 %11, label %12, label %26

12:                                               ; preds = %3
  %13 = load ptr, ptr @malloc_impl, align 8, !tbaa !3
  %14 = load i64, ptr %5, align 8, !tbaa !9
  %15 = load ptr, ptr %6, align 8, !tbaa !11
  %16 = load i32, ptr %7, align 4, !tbaa !7
  %17 = call ptr %13(i64 noundef %14, ptr noundef %15, i32 noundef %16)
  store ptr %17, ptr %8, align 8, !tbaa !3
  %18 = load ptr, ptr %8, align 8, !tbaa !3
  %19 = icmp ne ptr %18, null
  br i1 %19, label %23, label %20

20:                                               ; preds = %12
  %21 = load i64, ptr %5, align 8, !tbaa !9
  %22 = icmp eq i64 %21, 0
  br i1 %22, label %23, label %25

23:                                               ; preds = %20, %12
  %24 = load ptr, ptr %8, align 8, !tbaa !3
  store ptr %24, ptr %4, align 8
  store i32 1, ptr %9, align 4
  br label %52

25:                                               ; preds = %20
  br label %42

26:                                               ; preds = %3
  %27 = load i64, ptr %5, align 8, !tbaa !9
  %28 = icmp eq i64 %27, 0
  br i1 %28, label %29, label %30

29:                                               ; preds = %26
  store ptr null, ptr %4, align 8
  store i32 1, ptr %9, align 4
  br label %52

30:                                               ; preds = %26
  %31 = load i32, ptr @allow_customize, align 4, !tbaa !7
  %32 = icmp ne i32 %31, 0
  br i1 %32, label %33, label %34

33:                                               ; preds = %30
  store i32 0, ptr @allow_customize, align 4, !tbaa !7
  br label %34

34:                                               ; preds = %33, %30
  %35 = load i64, ptr %5, align 8, !tbaa !9
  %36 = call noalias ptr @malloc(i64 noundef %35) #9
  store ptr %36, ptr %8, align 8, !tbaa !3
  %37 = load ptr, ptr %8, align 8, !tbaa !3
  %38 = icmp ne ptr %37, null
  br i1 %38, label %39, label %41

39:                                               ; preds = %34
  %40 = load ptr, ptr %8, align 8, !tbaa !3
  store ptr %40, ptr %4, align 8
  store i32 1, ptr %9, align 4
  br label %52

41:                                               ; preds = %34
  br label %42

42:                                               ; preds = %41, %25
  %43 = load ptr, ptr %6, align 8, !tbaa !11
  %44 = icmp ne ptr %43, null
  br i1 %44, label %48, label %45

45:                                               ; preds = %42
  %46 = load i32, ptr %7, align 4, !tbaa !7
  %47 = icmp ne i32 %46, 0
  br i1 %47, label %48, label %51

48:                                               ; preds = %45, %42
  call void @ERR_new()
  %49 = load ptr, ptr %6, align 8, !tbaa !11
  %50 = load i32, ptr %7, align 4, !tbaa !7
  call void @ERR_set_debug(ptr noundef %49, i32 noundef %50, ptr noundef null)
  call void (i32, i32, ptr, ...) @ERR_set_error(i32 noundef 15, i32 noundef 786688, ptr noundef null)
  br label %51

51:                                               ; preds = %48, %45
  store ptr null, ptr %4, align 8
  store i32 1, ptr %9, align 4
  br label %52

52:                                               ; preds = %51, %39, %29, %23
  call void @llvm.lifetime.end.p0(i64 8, ptr %8) #8
  %53 = load ptr, ptr %4, align 8
  ret ptr %53
}

; Function Attrs: nounwind uwtable
define noalias ptr @CRYPTO_zalloc(i64 noundef %0, ptr noundef %1, i32 noundef %2) #0 {
  %4 = alloca i64, align 8
  %5 = alloca ptr, align 8
  %6 = alloca i32, align 4
  %7 = alloca ptr, align 8
  store i64 %0, ptr %4, align 8, !tbaa !9
  store ptr %1, ptr %5, align 8, !tbaa !11
  store i32 %2, ptr %6, align 4, !tbaa !7
  call void @llvm.lifetime.start.p0(i64 8, ptr %7) #8
  %8 = load i64, ptr %4, align 8, !tbaa !9
  %9 = load ptr, ptr %5, align 8, !tbaa !11
  %10 = load i32, ptr %6, align 4, !tbaa !7
  %11 = call noalias ptr @CRYPTO_malloc(i64 noundef %8, ptr noundef %9, i32 noundef %10)
  store ptr %11, ptr %7, align 8, !tbaa !3
  %12 = load ptr, ptr %7, align 8, !tbaa !3
  %13 = icmp ne ptr %12, null
  br i1 %13, label %14, label %17

14:                                               ; preds = %3
  %15 = load ptr, ptr %7, align 8, !tbaa !3
  %16 = load i64, ptr %4, align 8, !tbaa !9
  call void @llvm.memset.p0.i64(ptr align 1 %15, i8 0, i64 %16, i1 false)
  br label %17

17:                                               ; preds = %14, %3
  %18 = load ptr, ptr %7, align 8, !tbaa !3
  call void @llvm.lifetime.end.p0(i64 8, ptr %7) #8
  ret ptr %18
}