; Function Attrs: nounwind uwtable
define noalias ptr @CRYPTO_zalloc(i64 noundef %0, ptr noundef %1, i32 noundef %2) local_unnamed_addr #2 {
  %4 = load ptr, ptr @malloc_impl, align 8, !tbaa !3
  %.not.i = icmp eq ptr %4, @CRYPTO_malloc
  br i1 %.not.i, label %9, label %5

5:                                                ; preds = %3
  %6 = tail call ptr %4(i64 noundef %0, ptr noundef %1, i32 noundef %2) #11
  %7 = icmp ne ptr %6, null
  %8 = icmp eq i64 %0, 0
  %or.cond.i = or i1 %8, %7
  br i1 %or.cond.i, label %CRYPTO_malloc.exit, label %15

9:                                                ; preds = %3
  %10 = icmp eq i64 %0, 0
  br i1 %10, label %CRYPTO_malloc.exit.thread, label %11

11:                                               ; preds = %9
  %.b.i = load i1, ptr @allow_customize, align 4
  br i1 %.b.i, label %13, label %12

12:                                               ; preds = %11
  store i1 true, ptr @allow_customize, align 4
  br label %13

13:                                               ; preds = %12, %11
  %14 = tail call noalias ptr @malloc(i64 noundef %0) #12
  %.not20.i = icmp eq ptr %14, null
  br i1 %.not20.i, label %15, label %CRYPTO_malloc.exit.thread9

15:                                               ; preds = %13, %5
  %16 = icmp ne ptr %1, null
  %17 = icmp ne i32 %2, 0
  %or.cond3.i = or i1 %16, %17
  br i1 %or.cond3.i, label %18, label %CRYPTO_malloc.exit.thread

18:                                               ; preds = %15
  tail call void @ERR_new() #11
  tail call void @ERR_set_debug(ptr noundef %1, i32 noundef %2, ptr noundef null) #11
  tail call void (i32, i32, ptr, ...) @ERR_set_error(i32 noundef 15, i32 noundef 786688, ptr noundef null) #11
  br label %CRYPTO_malloc.exit.thread

CRYPTO_malloc.exit:                               ; preds = %5
  %.not = icmp eq ptr %6, null
  br i1 %.not, label %CRYPTO_malloc.exit.thread, label %CRYPTO_malloc.exit.thread9

CRYPTO_malloc.exit.thread9:                       ; preds = %13, %CRYPTO_malloc.exit
  %.0.i12 = phi ptr [ %6, %CRYPTO_malloc.exit ], [ %14, %13 ]
  tail call void @llvm.memset.p0.i64(ptr nonnull align 1 %.0.i12, i8 0, i64 %0, i1 false)
  br label %CRYPTO_malloc.exit.thread

CRYPTO_malloc.exit.thread:                        ; preds = %18, %15, %9, %CRYPTO_malloc.exit.thread9, %CRYPTO_malloc.exit
  %.0.i8 = phi ptr [ %.0.i12, %CRYPTO_malloc.exit.thread9 ], [ null, %CRYPTO_malloc.exit ], [ null, %9 ], [ null, %15 ], [ null, %18 ]
  ret ptr %.0.i8
}